(dp0
S'limited'
p1
(dp2
S'5.0'
p3
I243
sS'2.0'
p4
I118
sS'1.0'
p5
I107
sS'4.0'
p6
I259
sS'3.0'
p7
I132
ssS'foul'
p8
(dp9
g3
I4
sg4
I1
sg5
I2
sg6
I2
sg7
I1
ssS'sleek'
p10
(dp11
g3
I412
sg4
I110
sg5
I77
sg6
I311
sg7
I166
ssS'enjoyable'
p12
(dp13
g3
I17
sg4
I3
sg5
I3
sg6
I18
sg7
I2
ssS'thoughtful'
p14
(dp15
g3
I14
sg4
I1
sg5
I1
sg6
I7
sg7
I3
ssS'cooperative'
p16
(dp17
g3
I3
sg4
I1
sg5
I5
sg6
I2
sg7
I1
ssS'dainty'
p18
(dp19
g3
I5
sg4
I1
sg5
I3
sg6
I5
sg7
I2
ssS'messy'
p20
(dp21
g3
I14
sg4
I6
sg5
I1
sg6
I9
sg7
I7
ssS'reluctant'
p22
(dp23
g3
I33
sg4
I7
sg5
I20
sg6
I17
sg7
I8
ssS'compact'
p24
(dp25
g3
I425
sg4
I72
sg5
I46
sg6
I293
sg7
I93
ssS'dreadful'
p26
(dp27
g3
I3
sg4
I6
sg5
I6
sg6
I4
sg7
I0
ssS'attentive'
p28
(dp29
g3
I5
sg4
I0
sg5
I0
sg6
I2
sg7
I0
ssS'yummy'
p30
(dp31
g3
I1
sg4
I0
sg5
I0
sg6
I0
sg7
I0
ssS'ignorant'
p32
(dp33
g3
I2
sg4
I2
sg5
I5
sg6
I2
sg7
I1
ssS'outdated'
p34
(dp35
g3
I25
sg4
I14
sg5
I21
sg6
I17
sg7
I16
ssS'concerned'
p36
(dp37
g3
I204
sg4
I33
sg5
I41
sg6
I134
sg7
I39
ssS'disgusting'
p38
(dp39
g3
I4
sg4
I2
sg5
I10
sg6
I0
sg7
I2
ssS'unpleasant'
p40
(dp41
g3
I4
sg4
I7
sg5
I11
sg6
I6
sg7
I7
ssS'pleasing'
p42
(dp43
g3
I50
sg4
I7
sg5
I5
sg6
I27
sg7
I6
ssS'friendly'
p44
(dp45
g3
I232
sg4
I72
sg5
I89
sg6
I146
sg7
I68
ssS'overdone'
p46
(dp47
g3
I3
sg4
I0
sg5
I0
sg6
I0
sg7
I0
ssS'contemporary'
p48
(dp49
g3
I2
sg4
I0
sg5
I0
sg6
I22
sg7
I0
ssS'gloomy'
p50
(dp51
g3
I0
sg4
I0
sg5
I0
sg6
I1
sg7
I0
ssS'worst'
p52
(dp53
g3
I91
sg4
I160
sg5
I776
sg6
I106
sg7
I122
ssS'awful'
p54
(dp55
g3
I58
sg4
I100
sg5
I231
sg6
I63
sg7
I80
ssS'authentic'
p56
(dp57
g3
I25
sg4
I6
sg5
I22
sg6
I10
sg7
I12
ssS'tiresome'
p58
(dp59
g3
I3
sg4
I1
sg5
I1
sg6
I6
sg7
I2
ssS'cool'
p60
(dp61
g3
I1259
sg4
I311
sg5
I277
sg6
I835
sg7
I350
ssS'dim'
p62
(dp63
g3
I116
sg4
I44
sg5
I55
sg6
I118
sg7
I53
ssS'impressive'
p64
(dp65
g3
I174
sg4
I27
sg5
I24
sg6
I106
sg7
I45
ssS'stiff'
p66
(dp67
g3
I62
sg4
I28
sg5
I25
sg6
I67
sg7
I33
ssS'marvellous'
p68
(dp69
g3
I1
sg4
I0
sg5
I0
sg6
I1
sg7
I0
ssS'large'
p70
(dp71
g3
I1090
sg4
I308
sg5
I313
sg6
I1097
sg7
I428
ssS'apathetic'
p72
(dp73
g3
I0
sg4
I0
sg5
I1
sg6
I0
sg7
I0
ssS'quick'
p74
(dp75
g3
I2000
sg4
I390
sg5
I391
sg6
I1329
sg7
I483
ssS'nondescript'
p76
(dp77
g3
I0
sg4
I0
sg5
I0
sg6
I3
sg7
I1
ssS'deplorable'
p78
(dp79
g3
I0
sg4
I1
sg5
I4
sg6
I1
sg7
I1
ssS'grateful'
p80
(dp81
g3
I17
sg4
I2
sg5
I1
sg6
I5
sg7
I3
ssS'tired'
p82
(dp83
g3
I147
sg4
I31
sg5
I47
sg6
I89
sg7
I31
ssS'obsolete'
p84
(dp85
g3
I25
sg4
I7
sg5
I13
sg6
I20
sg7
I5
ssS'elegant'
p86
(dp87
g3
I103
sg4
I11
sg5
I9
sg6
I56
sg7
I17
ssS'fabulous'
p88
(dp89
g3
I91
sg4
I14
sg5
I9
sg6
I22
sg7
I9
ssS'uncomfortable'
p90
(dp91
g3
I226
sg4
I208
sg5
I193
sg6
I344
sg7
I220
ssS'stressful'
p92
(dp93
g3
I7
sg4
I1
sg5
I0
sg6
I2
sg7
I0
ssS'poisonous'
p94
(dp95
g3
I0
sg4
I0
sg5
I1
sg6
I0
sg7
I0
ssS'musty'
p96
(dp97
g3
I0
sg4
I1
sg5
I0
sg6
I0
sg7
I0
ssS'unhelpful'
p98
(dp99
g3
I1
sg4
I5
sg5
I9
sg6
I0
sg7
I5
ssS'rotten'
p100
(dp101
g3
I1
sg4
I1
sg5
I5
sg6
I2
sg7
I1
ssS'new'
p102
(dp103
g3
I4454
sg4
I1377
sg5
I2678
sg6
I2648
sg7
I1360
ssS'prosaic'
p104
(dp105
g3
I1
sg4
I0
sg5
I0
sg6
I0
sg7
I0
ssS'centric'
p106
(dp107
g3
I0
sg4
I0
sg5
I3
sg6
I0
sg7
I0
ssS'cozy'
p108
(dp109
g3
I3
sg4
I1
sg5
I0
sg6
I1
sg7
I1
ssS'apologetic'
p110
(dp111
g3
I0
sg4
I0
sg5
I0
sg6
I0
sg7
I1
ssS'unprofessional'
p112
(dp113
g3
I1
sg4
I5
sg5
I14
sg6
I0
sg7
I0
ssS'understanding'
p114
(dp115
g3
I38
sg4
I31
sg5
I18
sg6
I53
sg7
I17
ssS'busy'
p116
(dp117
g3
I99
sg4
I26
sg5
I44
sg6
I77
sg7
I34
ssS'personable'
p118
(dp119
g3
I0
sg4
I0
sg5
I1
sg6
I0
sg7
I0
ssS'great'
p120
(dp121
g3
I15512
sg4
I1689
sg5
I1656
sg6
I8256
sg7
I2623
ssS'brilliant'
p122
(dp123
g3
I84
sg4
I9
sg5
I7
sg6
I40
sg7
I15
ssS'smoky'
p124
(dp125
g3
I0
sg4
I0
sg5
I0
sg6
I0
sg7
I1
ssS'accomplished'
p126
(dp127
g3
I11
sg4
I2
sg5
I16
sg6
I10
sg7
I7
ssS'high-tech'
p128
(dp129
g3
I10
sg4
I1
sg5
I4
sg6
I8
sg7
I4
ssS'priceless'
p130
(dp131
g3
I11
sg4
I2
sg5
I1
sg6
I4
sg7
I3
ssS'suitable'
p132
(dp133
g3
I39
sg4
I12
sg5
I17
sg6
I28
sg7
I9
ssS'commendable'
p134
(dp135
g3
I1
sg4
I0
sg5
I0
sg6
I1
sg7
I0
ssS'snobby'
p136
(dp137
g3
I0
sg4
I0
sg5
I1
sg6
I0
sg7
I0
ssS'whimsical'
p138
(dp139
g3
I1
sg4
I0
sg5
I0
sg6
I0
sg7
I1
ssS'breathtaking'
p140
(dp141
g3
I0
sg4
I1
sg5
I0
sg6
I2
sg7
I0
ssS'uncivil'
p142
(dp143
g3
I0
sg4
I0
sg5
I1
sg6
I0
sg7
I0
ssS'smallish'
p144
(dp145
g3
I2
sg4
I3
sg5
I1
sg6
I10
sg7
I1
ssS'sympathetic'
p146
(dp147
g3
I0
sg4
I0
sg5
I4
sg6
I1
sg7
I0
ssS'ungainly'
p148
(dp149
g3
I3
sg4
I0
sg5
I1
sg6
I1
sg7
I3
ssS'positive'
p150
(dp151
g3
I177
sg4
I155
sg5
I164
sg6
I154
sg7
I108
ssS'negative'
p152
(dp153
g3
I492
sg4
I80
sg5
I176
sg6
I414
sg7
I96
ssS'calm'
p154
(dp155
g3
I4
sg4
I3
sg5
I12
sg6
I2
sg7
I7
ssS'pert'
p156
(dp157
g3
I6
sg4
I3
sg5
I3
sg6
I5
sg7
I3
ssS'tacky'
p158
(dp159
g3
I17
sg4
I13
sg5
I9
sg6
I13
sg7
I8
ssS'oily'
p160
(dp161
g3
I1
sg4
I1
sg5
I3
sg6
I9
sg7
I8
ssS'rich'
p162
(dp163
g3
I72
sg4
I11
sg5
I7
sg6
I51
sg7
I23
ssS'staggering'
p164
(dp165
g3
I2
sg4
I0
sg5
I1
sg6
I0
sg7
I1
ssS'acceptable'
p166
(dp167
g3
I89
sg4
I71
sg5
I46
sg6
I133
sg7
I88
ssS'charming'
p168
(dp169
g3
I1
sg4
I1
sg5
I0
sg6
I1
sg7
I0
ssS'warm'
p170
(dp171
g3
I62
sg4
I12
sg5
I30
sg6
I41
sg7
I16
ssS'dismal'
p172
(dp173
g3
I3
sg4
I7
sg5
I8
sg6
I4
sg7
I2
ssS'faultless'
p174
(dp175
g3
I1
sg4
I0
sg5
I0
sg6
I1
sg7
I1
ssS'excellent'
p176
(dp177
g3
I2824
sg4
I206
sg5
I158
sg6
I1416
sg7
I340
ssS'central'
p178
(dp179
g3
I36
sg4
I7
sg5
I11
sg6
I27
sg7
I10
ssS'uncool'
p180
(dp181
g3
I2
sg4
I1
sg5
I2
sg6
I3
sg7
I0
ssS'glad'
p182
(dp183
g3
I588
sg4
I56
sg5
I105
sg6
I244
sg7
I56
ssS'outmoded'
p184
(dp185
g3
I1
sg4
I0
sg5
I0
sg6
I0
sg7
I1
ssS'worn'
p186
(dp187
g3
I187
sg4
I57
sg5
I50
sg6
I114
sg7
I70
ssS'beautiful'
p188
(dp189
g3
I391
sg4
I59
sg5
I58
sg6
I212
sg7
I79
ssS'dedicated'
p190
(dp191
g3
I81
sg4
I26
sg5
I16
sg6
I92
sg7
I22
ssS'prompt'
p192
(dp193
g3
I374
sg4
I54
sg5
I137
sg6
I177
sg7
I69
ssS'awesome'
p194
(dp195
g3
I1106
sg4
I80
sg5
I73
sg6
I382
sg7
I111
ssS'inaccessible'
p196
(dp197
g3
I2
sg4
I2
sg5
I5
sg6
I1
sg7
I2
ssS'organized'
p198
(dp199
g3
I50
sg4
I5
sg5
I11
sg6
I26
sg7
I10
ssS'confused'
p200
(dp201
g3
I53
sg4
I13
sg5
I13
sg6
I32
sg7
I16
ssS'contented'
p202
(dp203
g3
I0
sg4
I0
sg5
I0
sg6
I0
sg7
I1
ssS'high'
p204
(dp205
g3
I3285
sg4
I514
sg5
I625
sg6
I1685
sg7
I682
ssS'battered'
p206
(dp207
g3
I2
sg4
I1
sg5
I0
sg6
I1
sg7
I1
ssS'sharp'
p208
(dp209
g3
I195
sg4
I51
sg5
I36
sg6
I172
sg7
I61
ssS'chic'
p210
(dp211
g3
I59
sg4
I15
sg5
I23
sg6
I47
sg7
I15
ssS'indifferent'
p212
(dp213
g3
I1
sg4
I1
sg5
I10
sg6
I1
sg7
I1
ssS'huge'
p214
(dp215
g3
I333
sg4
I118
sg5
I160
sg6
I300
sg7
I136
ssS'comfortable'
p216
(dp217
g3
I2246
sg4
I399
sg5
I243
sg6
I1660
sg7
I594
ssS'varied'
p218
(dp219
g3
I2
sg4
I1
sg5
I2
sg6
I8
sg7
I1
ssS'awkward'
p220
(dp221
g3
I103
sg4
I85
sg5
I83
sg6
I151
sg7
I90
ssS'lousy'
p222
(dp223
g3
I40
sg4
I31
sg5
I96
sg6
I35
sg7
I28
ssS'hot'
p224
(dp225
g3
I420
sg4
I98
sg5
I191
sg6
I269
sg7
I108
ssS'undersized'
p226
(dp227
g3
I1
sg4
I0
sg5
I0
sg6
I0
sg7
I1
ssS'widespread'
p228
(dp229
g3
I2
sg4
I3
sg5
I5
sg6
I3
sg7
I3
ssS'okay'
p230
(dp231
g3
I155
sg4
I164
sg5
I135
sg6
I258
sg7
I247
ssS'rude'
p232
(dp233
g3
I13
sg4
I8
sg5
I64
sg6
I6
sg7
I3
ssS'neat'
p234
(dp235
g3
I191
sg4
I47
sg5
I40
sg6
I150
sg7
I46
ssS'unobtrusive'
p236
(dp237
g3
I53
sg4
I8
sg5
I3
sg6
I35
sg7
I10
ssS'disgusted'
p238
(dp239
g3
I5
sg4
I4
sg5
I20
sg6
I3
sg7
I2
ssS'panoramic'
p240
(dp241
g3
I5
sg4
I0
sg5
I0
sg6
I2
sg7
I0
ssS'wrong'
p242
(dp243
g3
I607
sg4
I255
sg5
I624
sg6
I453
sg7
I253
ssS'filthy'
p244
(dp245
g3
I4
sg4
I3
sg5
I1
sg6
I0
sg7
I1
ssS'harsh'
p246
(dp247
g3
I19
sg4
I9
sg5
I9
sg6
I10
sg7
I11
ssS'muggy'
p248
(dp249
g3
I1
sg4
I0
sg5
I0
sg6
I0
sg7
I0
ssS'snotty'
p250
(dp251
g3
I0
sg4
I2
sg5
I0
sg6
I0
sg7
I0
ssS'natural'
p252
(dp253
g3
I106
sg4
I25
sg5
I25
sg6
I82
sg7
I25
ssS'splendid'
p254
(dp255
g3
I4
sg4
I0
sg5
I0
sg6
I3
sg7
I1
ssS'crowded'
p256
(dp257
g3
I39
sg4
I11
sg5
I6
sg6
I34
sg7
I23
ssS'rowdy'
p258
(dp259
g3
I1
sg4
I0
sg5
I0
sg6
I0
sg7
I0
ssS'sickening'
p260
(dp261
g3
I0
sg4
I0
sg5
I1
sg6
I0
sg7
I0
ssS'classy'
p262
(dp263
g3
I59
sg4
I4
sg5
I2
sg6
I18
sg7
I9
ssS'exclusive'
p264
(dp265
g3
I32
sg4
I10
sg5
I11
sg6
I29
sg7
I15
ssS'saturated'
p266
(dp267
g3
I3
sg4
I0
sg5
I1
sg6
I3
sg7
I1
ssS'satisfied'
p268
(dp269
g3
I700
sg4
I64
sg5
I78
sg6
I486
sg7
I103
ssS'ghastly'
p270
(dp271
g3
I0
sg4
I2
sg5
I0
sg6
I5
sg7
I0
ssS'responsive'
p272
(dp273
g3
I55
sg4
I10
sg5
I29
sg6
I63
sg7
I24
ssS'cold'
p274
(dp275
g3
I44
sg4
I14
sg5
I29
sg6
I38
sg7
I20
ssS'sassy'
p276
(dp277
g3
I0
sg4
I0
sg5
I0
sg6
I0
sg7
I1
ssS'arrogant'
p278
(dp279
g3
I0
sg4
I2
sg5
I3
sg6
I2
sg7
I2
ssS'contaminated'
p280
(dp281
g3
I0
sg4
I1
sg5
I0
sg6
I0
sg7
I0
ssS'perfect'
p282
(dp283
g3
I4306
sg4
I288
sg5
I289
sg6
I1757
sg7
I473
ssS'superior'
p284
(dp285
g3
I208
sg4
I40
sg5
I25
sg6
I135
sg7
I54
ssS'interesting'
p286
(dp287
g3
I82
sg4
I17
sg5
I39
sg6
I57
sg7
I23
ssS'amazing'
p288
(dp289
g3
I1033
sg4
I59
sg5
I90
sg6
I393
sg7
I119
ssS'willing'
p290
(dp291
g3
I107
sg4
I68
sg5
I90
sg6
I91
sg7
I64
ssS'understated'
p292
(dp293
g3
I15
sg4
I0
sg5
I0
sg6
I5
sg7
I0
ssS'spacious'
p294
(dp295
g3
I7
sg4
I0
sg5
I0
sg6
I2
sg7
I2
ssS'savory'
p296
(dp297
g3
I1
sg4
I0
sg5
I0
sg6
I0
sg7
I0
ssS'disappointing '
p298
(dp299
g3
I19
sg4
I48
sg5
I44
sg6
I32
sg7
I40
ssS'troubled'
p300
(dp301
g3
I3
sg4
I1
sg5
I0
sg6
I2
sg7
I0
ssS'admirable'
p302
(dp303
g3
I3
sg4
I1
sg5
I0
sg6
I0
sg7
I1
ssS'good'
p304
(dp305
g3
I9769
sg4
I2575
sg5
I2583
sg6
I9845
sg7
I4073
ssS'disrespectful'
p306
(dp307
g3
I0
sg4
I1
sg5
I0
sg6
I0
sg7
I0
ssS'unrefined'
p308
(dp309
g3
I0
sg4
I1
sg5
I0
sg6
I0
sg7
I1
ssS'disrupted'
p310
(dp311
g3
I1
sg4
I1
sg5
I2
sg6
I1
sg7
I1
ssS'qualified'
p312
(dp313
g3
I7
sg4
I0
sg5
I5
sg6
I5
sg7
I4
ssS'repulsive'
p314
(dp315
g3
I0
sg4
I1
sg5
I5
sg6
I0
sg7
I0
ssS'handy'
p316
(dp317
g3
I506
sg4
I52
sg5
I30
sg6
I361
sg7
I112
ssS'respectful'
p318
(dp319
g3
I0
sg4
I0
sg5
I2
sg6
I1
sg7
I0
ssS'stinking'
p320
(dp321
g3
I0
sg4
I2
sg5
I0
sg6
I0
sg7
I0
ssS'comprehensive '
p322
(dp323
g3
I3
sg4
I1
sg5
I0
sg6
I5
sg7
I1
ssS'frayed'
p324
(dp325
g3
I6
sg4
I1
sg5
I5
sg6
I1
sg7
I5
ssS'dingy'
p326
(dp327
g3
I3
sg4
I0
sg5
I0
sg6
I4
sg7
I0
ssS'delightful'
p328
(dp329
g3
I10
sg4
I0
sg5
I2
sg6
I3
sg7
I4
ssS'spotless'
p330
(dp331
g3
I1
sg4
I1
sg5
I1
sg6
I2
sg7
I0
ssS'reasonable'
p332
(dp333
g3
I339
sg4
I48
sg5
I52
sg6
I235
sg7
I74
ssS'shocking'
p334
(dp335
g3
I4
sg4
I4
sg5
I8
sg6
I4
sg7
I3
ssS'disorganized'
p336
(dp337
g3
I0
sg4
I1
sg5
I2
sg6
I1
sg7
I1
ssS'exquisite'
p338
(dp339
g3
I4
sg4
I0
sg5
I0
sg6
I2
sg7
I0
ssS'uncaring'
p340
(dp341
g3
I0
sg4
I1
sg5
I0
sg6
I0
sg7
I1
ssS'hard'
p342
(dp343
g3
I1907
sg4
I886
sg5
I982
sg6
I1967
sg7
I1061
ssS'surly'
p344
(dp345
g3
I0
sg4
I0
sg5
I2
sg6
I0
sg7
I0
ssS'special'
p346
(dp347
g3
I251
sg4
I80
sg5
I74
sg6
I198
sg7
I84
ssS'noiseless'
p348
(dp349
g3
I1
sg4
I1
sg5
I1
sg6
I0
sg7
I1
ssS'unoriginal'
p350
(dp351
g3
I1
sg4
I0
sg5
I0
sg6
I1
sg7
I0
ssS'wondrous'
p352
(dp353
g3
I1
sg4
I1
sg5
I0
sg6
I0
sg7
I0
ssS'unabashed'
p354
(dp355
g3
I2
sg4
I0
sg5
I0
sg6
I0
sg7
I1
ssS'unprepared'
p356
(dp357
g3
I1
sg4
I1
sg5
I0
sg6
I0
sg7
I1
ssS'darling'
p358
(dp359
g3
I3
sg4
I0
sg5
I0
sg6
I0
sg7
I1
ssS'correct'
p360
(dp361
g3
I368
sg4
I164
sg5
I375
sg6
I324
sg7
I189
ssS'pathetic'
p362
(dp363
g3
I9
sg4
I12
sg5
I53
sg6
I13
sg7
I17
ssS'free'
p364
(dp365
g3
I2401
sg4
I561
sg5
I893
sg6
I1479
sg7
I626
ssS'pleasant'
p366
(dp367
g3
I207
sg4
I18
sg5
I12
sg6
I96
sg7
I17
ssS'small'
p368
(dp369
g3
I3095
sg4
I809
sg5
I758
sg6
I2868
sg7
I1060
ssS'unfriendly'
p370
(dp371
g3
I0
sg4
I6
sg5
I14
sg6
I5
sg7
I4
ssS'greasy'
p372
(dp373
g3
I11
sg4
I7
sg5
I4
sg6
I14
sg7
I5
ssS'enormous'
p374
(dp375
g3
I13
sg4
I8
sg5
I7
sg6
I6
sg7
I5
ssS'unresolved'
p376
(dp377
g3
I1
sg4
I1
sg5
I1
sg6
I1
sg7
I0
ssS'untrained'
p378
(dp379
g3
I0
sg4
I1
sg5
I1
sg6
I0
sg7
I1
ssS'inexpensive'
p380
(dp381
g3
I376
sg4
I51
sg5
I66
sg6
I191
sg7
I74
ssS'terrible'
p382
(dp383
g3
I154
sg4
I251
sg5
I585
sg6
I142
sg7
I154
ssS'flawless'
p384
(dp385
g3
I387
sg4
I32
sg5
I28
sg6
I172
sg7
I43
ssS'funky'
p386
(dp387
g3
I25
sg4
I4
sg5
I5
sg6
I25
sg7
I10
ssS'tangled'
p388
(dp389
g3
I61
sg4
I15
sg5
I13
sg6
I42
sg7
I19
ssS'tempting'
p390
(dp391
g3
I3
sg4
I0
sg5
I4
sg6
I4
sg7
I3
ssS'loud'
p392
(dp393
g3
I1633
sg4
I476
sg5
I413
sg6
I1584
sg7
I623
ssS'jumbled'
p394
(dp395
g3
I1
sg4
I5
sg5
I4
sg6
I2
sg7
I1
ssS'naughty'
p396
(dp397
g3
I0
sg4
I1
sg5
I1
sg6
I0
sg7
I1
ssS'clumsy'
p398
(dp399
g3
I45
sg4
I23
sg5
I16
sg6
I50
sg7
I29
ssS'delicious'
p400
(dp401
g3
I2
sg4
I1
sg5
I1
sg6
I1
sg7
I0
ssS'steamy'
p402
(dp403
g3
I0
sg4
I1
sg5
I1
sg6
I0
sg7
I0
ssS'bland'
p404
(dp405
g3
I1
sg4
I1
sg5
I0
sg6
I7
sg7
I2
ssS'soundproof '
p406
(dp407
g3
I0
sg4
I0
sg5
I0
sg6
I0
sg7
I1
ssS'monotonous'
p408
(dp409
g3
I1
sg4
I0
sg5
I0
sg6
I0
sg7
I0
ssS'silent'
p410
(dp411
g3
I103
sg4
I58
sg5
I67
sg6
I123
sg7
I70
ssS'murky'
p412
(dp413
g3
I0
sg4
I1
sg5
I2
sg6
I0
sg7
I0
ssS'top'
p414
(dp415
g3
I963
sg4
I300
sg5
I412
sg6
I813
sg7
I376
ssS'comfy'
p416
(dp417
g3
I46
sg4
I7
sg5
I7
sg6
I41
sg7
I22
ssS'lamentable'
p418
(dp419
g3
I0
sg4
I0
sg5
I1
sg6
I0
sg7
I0
ssS'plentiful'
p420
(dp421
g3
I5
sg4
I1
sg5
I0
sg6
I7
sg7
I4
ssS'wonderful'
p422
(dp423
g3
I615
sg4
I71
sg5
I79
sg6
I284
sg7
I100
ssS'grimy'
p424
(dp425
g3
I1
sg4
I0
sg5
I0
sg6
I0
sg7
I0
ssS'airy'
p426
(dp427
g3
I0
sg4
I0
sg5
I0
sg6
I0
sg7
I2
ssS'inconvenient'
p428
(dp429
g3
I30
sg4
I31
sg5
I33
sg6
I50
sg7
I42
ssS'inefficient'
p430
(dp431
g3
I2
sg4
I5
sg5
I2
sg6
I1
sg7
I2
ssS'offhand'
p432
(dp433
g3
I0
sg4
I0
sg5
I0
sg6
I0
sg7
I1
ssS'dreary'
p434
(dp435
g3
I0
sg4
I0
sg5
I0
sg6
I1
sg7
I0
ssS'unexciting '
p436
(dp437
g3
I0
sg4
I0
sg5
I0
sg6
I1
sg7
I0
ssS'austere'
p438
(dp439
g3
I0
sg4
I0
sg5
I1
sg6
I0
sg7
I0
ssS'overwhelming'
p440
(dp441
g3
I18
sg4
I3
sg5
I5
sg6
I9
sg7
I2
ssS'wide'
p442
(dp443
g3
I203
sg4
I69
sg5
I57
sg6
I190
sg7
I86
ssS'kind'
p444
(dp445
g3
I811
sg4
I299
sg5
I338
sg6
I784
sg7
I403
ssS'objectionable'
p446
(dp447
g3
I4
sg4
I1
sg5
I0
sg6
I0
sg7
I0
ssS'boring'
p448
(dp449
g3
I39
sg4
I7
sg5
I6
sg6
I28
sg7
I11
ssS'outrageous'
p450
(dp451
g3
I21
sg4
I8
sg5
I21
sg6
I14
sg7
I5
ssS'appealing'
p452
(dp453
g3
I20
sg4
I12
sg5
I15
sg6
I25
sg7
I10
ssS'spoiled'
p454
(dp455
g3
I15
sg4
I14
sg5
I12
sg6
I16
sg7
I10
ssS'stale'
p456
(dp457
g3
I1
sg4
I1
sg5
I0
sg6
I1
sg7
I2
ssS'dusty'
p458
(dp459
g3
I9
sg4
I0
sg5
I8
sg6
I6
sg7
I3
ssS'outstanding'
p460
(dp461
g3
I249
sg4
I12
sg5
I16
sg6
I108
sg7
I36
ssS'modern'
p462
(dp463
g3
I60
sg4
I20
sg5
I12
sg6
I39
sg7
I19
ssS'tidy'
p464
(dp465
g3
I10
sg4
I0
sg5
I1
sg6
I2
sg7
I0
ssS'juicy'
p466
(dp467
g3
I0
sg4
I0
sg5
I0
sg6
I1
sg7
I1
ssS'sad'
p468
(dp469
g3
I85
sg4
I65
sg5
I109
sg6
I62
sg7
I63
ssS'gentle'
p470
(dp471
g3
I36
sg4
I22
sg5
I31
sg6
I34
sg7
I12
ssS'cognizant'
p472
(dp473
g3
I2
sg4
I1
sg5
I0
sg6
I1
sg7
I0
ssS'blissful'
p474
(dp475
g3
I2
sg4
I2
sg5
I2
sg6
I0
sg7
I0
ssS'mawkish'
p476
(dp477
g3
I0
sg4
I0
sg5
I0
sg6
I0
sg7
I1
ssS'lumpy'
p478
(dp479
g3
I1
sg4
I0
sg5
I1
sg6
I2
sg7
I1
ssS'genuine'
p480
(dp481
g3
I145
sg4
I19
sg5
I51
sg6
I34
sg7
I24
ssS'haywire'
p482
(dp483
g3
I1
sg4
I4
sg5
I10
sg6
I1
sg7
I1
ssS'fashionable'
p484
(dp485
g3
I28
sg4
I0
sg5
I3
sg6
I23
sg7
I6
ssS'efficient'
p486
(dp487
g3
I82
sg4
I15
sg5
I8
sg6
I53
sg7
I29
ssS'convenient'
p488
(dp489
g3
I474
sg4
I89
sg5
I65
sg6
I342
sg7
I130
ssS'uncouth'
p490
(dp491
g3
I1
sg4
I0
sg5
I0
sg6
I0
sg7
I0
ssS'able'
p492
(dp493
g3
I1842
sg4
I549
sg5
I747
sg6
I1498
sg7
I701
ssS'terrific'
p494
(dp495
g3
I149
sg4
I9
sg5
I15
sg6
I52
sg7
I11
ssS'ideal'
p496
(dp497
g3
I104
sg4
I29
sg5
I22
sg6
I91
sg7
I42
ssS'demolished'
p498
(dp499
g3
I1
sg4
I0
sg5
I0
sg6
I0
sg7
I1
ssS'amusing'
p500
(dp501
g3
I5
sg4
I1
sg5
I2
sg6
I3
sg7
I3
ssS'yucky'
p502
(dp503
g3
I1
sg4
I0
sg5
I1
sg6
I0
sg7
I2
ssS'inexperienced'
p504
(dp505
g3
I1
sg4
I1
sg5
I0
sg6
I0
sg7
I0
ssS'experienced'
p506
(dp507
g3
I187
sg4
I64
sg5
I112
sg6
I156
sg7
I86
ssS'multilingual'
p508
(dp509
g3
I0
sg4
I0
sg5
I0
sg6
I4
sg7
I0
ssS'harmful'
p510
(dp511
g3
I6
sg4
I2
sg5
I2
sg6
I1
sg7
I0
ssS'expired'
p512
(dp513
g3
I19
sg4
I15
sg5
I83
sg6
I10
sg7
I23
ssS'peaceful'
p514
(dp515
g3
I2
sg4
I1
sg5
I1
sg6
I0
sg7
I0
ssS'insulting'
p516
(dp517
g3
I0
sg4
I0
sg5
I1
sg6
I2
sg7
I2
ssS'surprising'
p518
(dp519
g3
I157
sg4
I19
sg5
I14
sg6
I143
sg7
I43
ssS'enthusiastic'
p520
(dp521
g3
I8
sg4
I2
sg5
I3
sg6
I2
sg7
I4
ssS'upset'
p522
(dp523
g3
I35
sg4
I34
sg5
I64
sg6
I27
sg7
I28
ssS'unreasonable'
p524
(dp525
g3
I8
sg4
I4
sg5
I2
sg6
I7
sg7
I5
ssS'rancid'
p526
(dp527
g3
I0
sg4
I0
sg5
I1
sg6
I0
sg7
I0
ssS'astonishing'
p528
(dp529
g3
I5
sg4
I0
sg5
I1
sg6
I8
sg7
I2
ssS'orderly'
p530
(dp531
g3
I1
sg4
I0
sg5
I0
sg6
I0
sg7
I1
ssS'cramped'
p532
(dp533
g3
I11
sg4
I5
sg5
I4
sg6
I22
sg7
I5
ssS'clean'
p534
(dp535
g3
I347
sg4
I74
sg5
I105
sg6
I263
sg7
I132
ssS'professional'
p536
(dp537
g3
I199
sg4
I23
sg5
I41
sg6
I124
sg7
I38
ssS'entertaining'
p538
(dp539
g3
I19
sg4
I0
sg5
I4
sg6
I7
sg7
I4
ssS'annoyed'
p540
(dp541
g3
I23
sg4
I20
sg5
I26
sg6
I32
sg7
I17
ssS'uninterested'
p542
(dp543
g3
I1
sg4
I0
sg5
I1
sg6
I0
sg7
I0
ssS'discontent'
p544
(dp545
g3
I0
sg4
I0
sg5
I0
sg6
I0
sg7
I1
ssS'walking'
p546
(dp547
g3
I218
sg4
I76
sg5
I81
sg6
I234
sg7
I95
ssS'overpriced'
p548
(dp549
g3
I29
sg4
I21
sg5
I54
sg6
I27
sg7
I19
ssS'scorched'
p550
(dp551
g3
I0
sg4
I0
sg5
I0
sg6
I0
sg7
I1
ssS'cheerful'
p552
(dp553
g3
I5
sg4
I0
sg5
I2
sg6
I3
sg7
I2
ssS'bright'
p554
(dp555
g3
I615
sg4
I140
sg5
I76
sg6
I519
sg7
I176
ssS'gruesome'
p556
(dp557
g3
I0
sg4
I0
sg5
I1
sg6
I0
sg7
I0
ssS'gratified'
p558
(dp559
g3
I2
sg4
I0
sg5
I0
sg6
I0
sg7
I0
ssS'rough'
p560
(dp561
g3
I116
sg4
I40
sg5
I45
sg6
I100
sg7
I58
ssS'fine'
p562
(dp563
g3
I2003
sg4
I708
sg5
I861
sg6
I2083
sg7
I1096
ssS'pleased'
p564
(dp565
g3
I1116
sg4
I70
sg5
I87
sg6
I660
sg7
I104
ssS'inspiring'
p566
(dp567
g3
I1
sg4
I0
sg5
I1
sg6
I0
sg7
I0
ssS'slow'
p568
(dp569
g3
I363
sg4
I258
sg5
I337
sg6
I475
sg7
I281
ssS'delinquent'
p570
(dp571
g3
I0
sg4
I0
sg5
I0
sg6
I0
sg7
I1
ssS'stained'
p572
(dp573
g3
I2
sg4
I1
sg5
I2
sg6
I8
sg7
I0
ssS'unhappy'
p574
(dp575
g3
I22
sg4
I20
sg5
I86
sg6
I26
sg7
I20
ssS'pretty'
p576
(dp577
g3
I1766
sg4
I679
sg5
I477
sg6
I2365
sg7
I1074
ssS'humdrum'
p578
(dp579
g3
I1
sg4
I0
sg5
I0
sg6
I0
sg7
I1
ssS'adequate'
p580
(dp581
g3
I155
sg4
I54
sg5
I51
sg6
I163
sg7
I92
ssS'colorful'
p582
(dp583
g3
I48
sg4
I7
sg5
I2
sg6
I59
sg7
I21
ssS'exceptional'
p584
(dp585
g3
I170
sg4
I11
sg5
I14
sg6
I94
sg7
I30
ssS'unbeatable'
p586
(dp587
g3
I51
sg4
I0
sg5
I2
sg6
I20
sg7
I4
ssS'unacceptable'
p588
(dp589
g3
I9
sg4
I68
sg5
I46
sg6
I19
sg7
I20
ssS'inappropriate '
p590
(dp591
g3
I0
sg4
I1
sg5
I5
sg6
I3
sg7
I0
ssS'famous'
p592
(dp593
g3
I9
sg4
I6
sg5
I4
sg6
I9
sg7
I0
ssS'understaffed'
p594
(dp595
g3
I0
sg4
I0
sg5
I1
sg6
I0
sg7
I0
ssS'competitive'
p596
(dp597
g3
I31
sg4
I7
sg5
I7
sg6
I23
sg7
I4
ssS'nasty'
p598
(dp599
g3
I18
sg4
I9
sg5
I12
sg6
I15
sg7
I11
ssS'impolite'
p600
(dp601
g3
I0
sg4
I2
sg5
I1
sg6
I1
sg7
I0
ssS'bad'
p602
(dp603
g3
I1199
sg4
I896
sg5
I1539
sg6
I1259
sg7
I986
ssS'stupid'
p604
(dp605
g3
I123
sg4
I83
sg5
I161
sg6
I92
sg7
I77
ssS'courteous'
p606
(dp607
g3
I24
sg4
I6
sg5
I5
sg6
I11
sg7
I4
ssS'available'
p608
(dp609
g3
I857
sg4
I167
sg5
I270
sg6
I658
sg7
I244
ssS'unworthy'
p610
(dp611
g3
I0
sg4
I0
sg5
I0
sg6
I1
sg7
I0
ssS'scruffy'
p612
(dp613
g3
I0
sg4
I1
sg5
I0
sg6
I0
sg7
I0
ssS'fascinating'
p614
(dp615
g3
I3
sg4
I0
sg5
I0
sg6
I1
sg7
I1
ssS'fluffy'
p616
(dp617
g3
I0
sg4
I0
sg5
I0
sg6
I1
sg7
I2
ssS'smiling'
p618
(dp619
g3
I2
sg4
I0
sg5
I1
sg6
I2
sg7
I1
ssS'best'
p620
(dp621
g3
I4589
sg4
I460
sg5
I558
sg6
I2034
sg7
I622
ssS'satisfying'
p622
(dp623
g3
I31
sg4
I2
sg5
I4
sg6
I19
sg7
I5
ssS'horrid'
p624
(dp625
g3
I5
sg4
I7
sg5
I21
sg6
I6
sg7
I6
ssS'superb'
p626
(dp627
g3
I210
sg4
I18
sg5
I13
sg6
I80
sg7
I26
ssS'unable'
p628
(dp629
g3
I91
sg4
I94
sg5
I163
sg6
I82
sg7
I68
ssS'tainted'
p630
(dp631
g3
I1
sg4
I1
sg5
I1
sg6
I1
sg7
I1
ssS'worrying '
p632
(dp633
g3
I42
sg4
I4
sg5
I6
sg6
I18
sg7
I9
ssS'horrible'
p634
(dp635
g3
I153
sg4
I229
sg5
I586
sg6
I153
sg7
I125
ssS'crude'
p636
(dp637
g3
I2
sg4
I1
sg5
I1
sg6
I5
sg7
I2
ssS'roomy'
p638
(dp639
g3
I10
sg4
I0
sg5
I0
sg6
I3
sg7
I1
ssS'disgruntled'
p640
(dp641
g3
I3
sg4
I0
sg5
I6
sg6
I2
sg7
I1
ssS'skimpy'
p642
(dp643
g3
I2
sg4
I3
sg5
I3
sg6
I6
sg7
I2
ssS'affordable'
p644
(dp645
g3
I169
sg4
I12
sg5
I12
sg6
I89
sg7
I19
ssS'lazy'
p646
(dp647
g3
I16
sg4
I7
sg5
I4
sg6
I15
sg7
I7
ssS'appalling'
p648
(dp649
g3
I1
sg4
I2
sg5
I6
sg6
I1
sg7
I2
ssS'weak'
p650
(dp651
g3
I208
sg4
I172
sg5
I189
sg6
I270
sg7
I171
ssS'adept'
p652
(dp653
g3
I2
sg4
I2
sg5
I1
sg6
I3
sg7
I2
ssS'competent'
p654
(dp655
g3
I4
sg4
I3
sg5
I2
sg6
I7
sg7
I4
ssS'precious'
p656
(dp657
g3
I13
sg4
I1
sg5
I11
sg6
I12
sg7
I9
ssS'gratis'
p658
(dp659
g3
I0
sg4
I0
sg5
I0
sg6
I1
sg7
I0
ssS'pissed'
p660
(dp661
g3
I7
sg4
I8
sg5
I23
sg6
I3
sg7
I5
ssS'quiet'
p662
(dp663
g3
I224
sg4
I177
sg5
I151
sg6
I252
sg7
I192
ssS'sultry'
p664
(dp665
g3
I1
sg4
I0
sg5
I0
sg6
I0
sg7
I0
ssS'fulfilled'
p666
(dp667
g3
I7
sg4
I3
sg5
I11
sg6
I7
sg7
I2
ssS'disastrous'
p668
(dp669
g3
I3
sg4
I1
sg5
I2
sg6
I2
sg7
I1
ssS'hollow'
p670
(dp671
g3
I13
sg4
I8
sg5
I12
sg6
I15
sg7
I7
ssS'improper'
p672
(dp673
g3
I4
sg4
I3
sg5
I7
sg6
I7
sg7
I2
ssS'loaded'
p674
(dp675
g3
I138
sg4
I34
sg5
I53
sg6
I90
sg7
I33
ssS'expensive'
p676
(dp677
g3
I716
sg4
I188
sg5
I285
sg6
I534
sg7
I235
ssS'unusual'
p678
(dp679
g3
I33
sg4
I16
sg5
I16
sg6
I33
sg7
I16
ssS'capable'
p680
(dp681
g3
I103
sg4
I23
sg5
I38
sg6
I96
sg7
I38
ssS'decent'
p682
(dp683
g3
I578
sg4
I279
sg5
I192
sg6
I777
sg7
I481
ssS'damp'
p684
(dp685
g3
I9
sg4
I3
sg5
I4
sg6
I9
sg7
I4
ssS'informed'
p686
(dp687
g3
I21
sg4
I27
sg5
I99
sg6
I20
sg7
I15
ssS'tiny'
p688
(dp689
g3
I336
sg4
I119
sg5
I112
sg6
I325
sg7
I156
ssS'coarse'
p690
(dp691
g3
I3
sg4
I3
sg5
I1
sg6
I4
sg7
I1
ssS'basic'
p692
(dp693
g3
I567
sg4
I261
sg5
I348
sg6
I618
sg7
I318
ssS'lovely'
p694
(dp695
g3
I28
sg4
I9
sg5
I9
sg6
I21
sg7
I18
ssS'incompetent'
p696
(dp697
g3
I0
sg4
I2
sg5
I34
sg6
I1
sg7
I2
ssS'relaxing'
p698
(dp699
g3
I3
sg4
I1
sg5
I1
sg6
I4
sg7
I1
ssS'tasteless'
p700
(dp701
g3
I0
sg4
I1
sg5
I0
sg6
I0
sg7
I0
ssS'homely'
p702
(dp703
g3
I0
sg4
I0
sg5
I0
sg6
I0
sg7
I1
ssS'pricey'
p704
(dp705
g3
I88
sg4
I9
sg5
I11
sg6
I69
sg7
I21
ssS'hateful'
p706
(dp707
g3
I0
sg4
I0
sg5
I1
sg6
I0
sg7
I0
ssS'chatty'
p708
(dp709
g3
I1
sg4
I0
sg5
I1
sg6
I0
sg7
I1
ssS'careful'
p710
(dp711
g3
I294
sg4
I136
sg5
I203
sg6
I330
sg7
I211
ssS'extensive'
p712
(dp713
g3
I93
sg4
I15
sg5
I16
sg6
I67
sg7
I24
ssS'gracious'
p714
(dp715
g3
I2
sg4
I2
sg5
I8
sg6
I2
sg7
I2
ssS'welcoming'
p716
(dp717
g3
I1
sg4
I0
sg5
I0
sg6
I0
sg7
I1
ssS'reliable'
p718
(dp719
g3
I385
sg4
I95
sg5
I126
sg6
I254
sg7
I119
ssS'accommodating'
p720
(dp721
g3
I8
sg4
I2
sg5
I3
sg6
I2
sg7
I2
ssS'pretentious'
p722
(dp723
g3
I2
sg4
I0
sg5
I0
sg6
I3
sg7
I1
ssS'ugly'
p724
(dp725
g3
I71
sg4
I66
sg5
I57
sg6
I86
sg7
I56
ssS'stunning'
p726
(dp727
g3
I17
sg4
I3
sg5
I4
sg6
I11
sg7
I6
ssS'abrupt'
p728
(dp729
g3
I1
sg4
I3
sg5
I1
sg6
I3
sg7
I4
ssS'unsatisfactory'
p730
(dp731
g3
I4
sg4
I6
sg5
I7
sg6
I3
sg7
I4
ssS'costly'
p732
(dp733
g3
I22
sg4
I5
sg5
I10
sg6
I15
sg7
I7
ssS'ripe'
p734
(dp735
g3
I2
sg4
I1
sg5
I1
sg6
I1
sg7
I0
ssS'disappointing'
p736
(dp737
g3
I33
sg4
I102
sg5
I108
sg6
I66
sg7
I82
ssS'ready'
p738
(dp739
g3
I307
sg4
I72
sg5
I124
sg6
I178
sg7
I87
ssS'obnoxious'
p740
(dp741
g3
I12
sg4
I15
sg5
I12
sg6
I27
sg7
I11
ssS'funny'
p742
(dp743
g3
I63
sg4
I14
sg5
I40
sg6
I72
sg7
I26
ssS'spectacular'
p744
(dp745
g3
I44
sg4
I11
sg5
I3
sg6
I31
sg7
I10
ssS'haphazard'
p746
(dp747
g3
I1
sg4
I1
sg5
I0
sg6
I0
sg7
I0
ssS'difficult'
p748
(dp749
g3
I591
sg4
I415
sg5
I444
sg6
I798
sg7
I472
ssS'fatty'
p750
(dp751
g3
I0
sg4
I1
sg5
I1
sg6
I0
sg7
I0
ssS'swell'
p752
(dp753
g3
I4
sg4
I3
sg5
I5
sg6
I3
sg7
I3
ssS'impeccable'
p754
(dp755
g3
I5
sg4
I0
sg5
I0
sg6
I1
sg7
I0
ssS'narrow'
p756
(dp757
g3
I38
sg4
I10
sg5
I19
sg6
I47
sg7
I16
ssS'stupendous'
p758
(dp759
g3
I2
sg4
I1
sg5
I0
sg6
I0
sg7
I0
ssS'inelegant'
p760
(dp761
g3
I1
sg4
I0
sg5
I1
sg6
I1
sg7
I0
ssS'unconcerned'
p762
(dp763
g3
I1
sg4
I1
sg5
I1
sg6
I0
sg7
I0
ssS'ragged'
p764
(dp765
g3
I0
sg4
I1
sg5
I0
sg6
I1
sg7
I0
ssS'stinky'
p766
(dp767
g3
I2
sg4
I0
sg5
I0
sg6
I0
sg7
I0
ssS'grumpy'
p768
(dp769
g3
I1
sg4
I1
sg5
I0
sg6
I1
sg7
I1
ssS'mislaid'
p770
(dp771
g3
I0
sg4
I0
sg5
I0
sg6
I0
sg7
I1
ssS'charged'
p772
(dp773
g3
I896
sg4
I277
sg5
I684
sg6
I469
sg7
I271
ssS'extortionate'
p774
(dp775
g3
I0
sg4
I0
sg5
I0
sg6
I0
sg7
I1
ssS'excessive'
p776
(dp777
g3
I37
sg4
I20
sg5
I15
sg6
I24
sg7
I14
ssS'knowledgeable'
p778
(dp779
g3
I11
sg4
I1
sg5
I5
sg6
I11
sg7
I2
ssS'fantastic'
p780
(dp781
g3
I522
sg4
I32
sg5
I49
sg6
I207
sg7
I63
ssS'valuable'
p782
(dp783
g3
I17
sg4
I9
sg5
I12
sg6
I11
sg7
I4
ssS'distant'
p784
(dp785
g3
I11
sg4
I8
sg5
I19
sg6
I19
sg7
I19
ssS'keen'
p786
(dp787
g3
I7
sg4
I0
sg5
I1
sg6
I5
sg7
I4
ssS'expert'
p788
(dp789
g3
I35
sg4
I9
sg5
I12
sg6
I28
sg7
I8
ssS'generous'
p790
(dp791
g3
I15
sg4
I7
sg5
I9
sg6
I17
sg7
I8
ssS'renewed'
p792
(dp793
g3
I11
sg4
I5
sg5
I11
sg6
I10
sg7
I4
ssS'repetitious'
p794
(dp795
g3
I1
sg4
I0
sg5
I0
sg6
I0
sg7
I0
ssS'eager'
p796
(dp797
g3
I13
sg4
I14
sg5
I12
sg6
I3
sg7
I5
ssS'attractive'
p798
(dp799
g3
I199
sg4
I43
sg5
I42
sg6
I172
sg7
I57
ssS'easy'
p800
(dp801
g3
I5311
sg4
I666
sg5
I436
sg6
I3603
sg7
I1069
ssS'pitiful'
p802
(dp803
g3
I1
sg4
I6
sg5
I8
sg6
I6
sg7
I1
ssS'useless'
p804
(dp805
g3
I141
sg4
I304
sg5
I646
sg6
I186
sg7
I202
ssS'ample'
p806
(dp807
g3
I23
sg4
I4
sg5
I3
sg6
I16
sg7
I6
ssS'big'
p808
(dp809
g3
I1831
sg4
I627
sg5
I722
sg6
I1902
sg7
I827
ssS'discreet'
p810
(dp811
g3
I40
sg4
I5
sg5
I3
sg6
I25
sg7
I6
ssS'dreamy'
p812
(dp813
g3
I1
sg4
I0
sg5
I0
sg6
I0
sg7
I0
ssS'confined'
p814
(dp815
g3
I5
sg4
I1
sg5
I1
sg6
I3
sg7
I0
ssS'unique'
p816
(dp817
g3
I144
sg4
I21
sg5
I26
sg6
I114
sg7
I29
ssS'burnt'
p818
(dp819
g3
I2
sg4
I2
sg5
I5
sg6
I2
sg7
I1
ssS'helpful'
p820
(dp821
g3
I288
sg4
I61
sg5
I100
sg6
I182
sg7
I83
ssS'blunt'
p822
(dp823
g3
I0
sg4
I0
sg5
I5
sg6
I3
sg7
I0
ssS'discarded'
p824
(dp825
g3
I6
sg4
I1
sg5
I7
sg6
I4
sg7
I0
ssS'informative'
p826
(dp827
g3
I8
sg4
I0
sg5
I1
sg6
I5
sg7
I1
ssS'sparse'
p828
(dp829
g3
I2
sg4
I2
sg5
I0
sg6
I7
sg7
I4
ssS'stylish'
p830
(dp831
g3
I337
sg4
I48
sg5
I53
sg6
I217
sg7
I80
ssS'substandard'
p832
(dp833
g3
I2
sg4
I8
sg5
I23
sg6
I4
sg7
I6
ssS'soft'
p834
(dp835
g3
I1903
sg4
I714
sg5
I1231
sg6
I1795
sg7
I879
ssS'healthy'
p836
(dp837
g3
I1
sg4
I0
sg5
I2
sg6
I0
sg7
I1
ssS'stretched '
p838
(dp839
g3
I26
sg4
I15
sg5
I10
sg6
I17
sg7
I6
ssS'accessible'
p840
(dp841
g3
I114
sg4
I12
sg5
I7
sg6
I83
sg7
I30
ssS'satisfactory'
p842
(dp843
g3
I44
sg4
I11
sg5
I15
sg6
I51
sg7
I21
ssS'old'
p844
(dp845
g3
I2275
sg4
I730
sg5
I1125
sg6
I1488
sg7
I744
ssS'shabby'
p846
(dp847
g3
I6
sg4
I1
sg5
I4
sg6
I3
sg7
I6
ssS'obliged'
p848
(dp849
g3
I1
sg4
I1
sg5
I1
sg6
I2
sg7
I0
ssS'magnificent'
p850
(dp851
g3
I12
sg4
I1
sg5
I1
sg6
I0
sg7
I2
ssS'overheated'
p852
(dp853
g3
I0
sg4
I2
sg5
I12
sg6
I0
sg7
I2
ssS'dead'
p854
(dp855
g3
I275
sg4
I146
sg5
I418
sg6
I198
sg7
I159
ssS'trendy'
p856
(dp857
g3
I12
sg4
I15
sg5
I2
sg6
I24
sg7
I8
ssS'divine'
p858
(dp859
g3
I2
sg4
I1
sg5
I0
sg6
I0
sg7
I0
ssS'stuffy'
p860
(dp861
g3
I5
sg4
I0
sg5
I0
sg6
I0
sg7
I0
ssS'amicable'
p862
(dp863
g3
I1
sg4
I0
sg5
I0
sg6
I0
sg7
I0
ssS'confusing'
p864
(dp865
g3
I77
sg4
I36
sg5
I34
sg6
I98
sg7
I53
ssS'luxe'
p866
(dp867
g3
I2
sg4
I1
sg5
I0
sg6
I2
sg7
I0
ssS'nauseating'
p868
(dp869
g3
I0
sg4
I0
sg5
I0
sg6
I1
sg7
I1
ssS'proficient'
p870
(dp871
g3
I3
sg4
I1
sg5
I0
sg6
I2
sg7
I2
ssS'appreciative'
p872
(dp873
g3
I6
sg4
I0
sg5
I0
sg6
I2
sg7
I0
ssS'icy'
p874
(dp875
g3
I0
sg4
I0
sg5
I1
sg6
I2
sg7
I0
ssS'economical'
p876
(dp877
g3
I29
sg4
I3
sg5
I2
sg6
I18
sg7
I4
ssS'minimal'
p878
(dp879
g3
I133
sg4
I34
sg5
I54
sg6
I93
sg7
I51
ssS'palatable'
p880
(dp881
g3
I0
sg4
I0
sg5
I0
sg6
I1
sg7
I0
ssS'patient'
p882
(dp883
g3
I32
sg4
I14
sg5
I15
sg6
I33
sg7
I13
ssS'intimate'
p884
(dp885
g3
I1
sg4
I1
sg5
I2
sg6
I1
sg7
I1
ssS'brassy'
p886
(dp887
g3
I0
sg4
I0
sg5
I1
sg6
I0
sg7
I0
ssS'broken'
p888
(dp889
g3
I191
sg4
I179
sg5
I368
sg6
I210
sg7
I139
ssS'worthy'
p890
(dp891
g3
I25
sg4
I5
sg5
I11
sg6
I20
sg7
I6
ssS'memorable'
p892
(dp893
g3
I2
sg4
I1
sg5
I0
sg6
I0
sg7
I0
ssS'noisy'
p894
(dp895
g3
I272
sg4
I81
sg5
I60
sg6
I322
sg7
I138
ssS'undeserving '
p896
(dp897
g3
I0
sg4
I0
sg5
I0
sg6
I0
sg7
I1
ssS'inconsiderate'
p898
(dp899
g3
I0
sg4
I0
sg5
I1
sg6
I0
sg7
I0
ssS'ok'
p900
(dp901
g3
I685
sg4
I659
sg5
I520
sg6
I937
sg7
I984
ssS'serviceable'
p902
(dp903
g3
I9
sg4
I6
sg5
I2
sg6
I10
sg7
I10
ssS'frightful'
p904
(dp905
g3
I0
sg4
I1
sg5
I0
sg6
I0
sg7
I0
ssS'repellent'
p906
(dp907
g3
I1
sg4
I0
sg5
I1
sg6
I0
sg7
I0
ssS'garish '
p908
(dp909
g3
I1
sg4
I0
sg5
I0
sg6
I1
sg7
I0
ssS'insufficient'
p910
(dp911
g3
I9
sg4
I3
sg5
I9
sg6
I7
sg7
I5
ssS'deranged'
p912
(dp913
g3
I0
sg4
I0
sg5
I0
sg6
I0
sg7
I1
ssS'misplaced'
p914
(dp915
g3
I33
sg4
I5
sg5
I8
sg6
I17
sg7
I4
ssS'delighted'
p916
(dp917
g3
I54
sg4
I4
sg5
I7
sg6
I16
sg7
I2
ssS'thankful'
p918
(dp919
g3
I46
sg4
I17
sg5
I44
sg6
I28
sg7
I18
ssS'appropriate'
p920
(dp921
g3
I60
sg4
I11
sg5
I22
sg6
I57
sg7
I22
ssS'smelly'
p922
(dp923
g3
I1
sg4
I0
sg5
I1
sg6
I0
sg7
I0
ssS'lively'
p924
(dp925
g3
I1
sg4
I0
sg5
I0
sg6
I1
sg7
I0
ssS'refined'
p926
(dp927
g3
I11
sg4
I0
sg5
I1
sg6
I5
sg7
I4
ssS'unfashionable'
p928
(dp929
g3
I0
sg4
I0
sg5
I0
sg6
I1
sg7
I2
ssS'fast'
p930
(dp931
g3
I1845
sg4
I188
sg5
I196
sg6
I897
sg7
I292
ssS'low'
p932
(dp933
g3
I1399
sg4
I572
sg5
I664
sg6
I1160
sg7
I646
ssS'immaculate'
p934
(dp935
g3
I1
sg4
I0
sg5
I0
sg6
I1
sg7
I1
ssS'happy'
p936
(dp937
g3
I2008
sg4
I257
sg5
I371
sg6
I1279
sg7
I309
ssS'agreeable'
p938
(dp939
g3
I0
sg4
I1
sg5
I0
sg6
I0
sg7
I0
ssS'complete'
p940
(dp941
g3
I643
sg4
I393
sg5
I772
sg6
I463
sg7
I327
ssS'relaxed'
p942
(dp943
g3
I4
sg4
I1
sg5
I0
sg6
I2
sg7
I1
ssS'gorgeous'
p944
(dp945
g3
I59
sg4
I8
sg5
I3
sg6
I50
sg7
I13
ssS'sophisticated'
p946
(dp947
g3
I40
sg4
I6
sg5
I3
sg6
I17
sg7
I8
ssS'bum'
p948
(dp949
g3
I181
sg4
I98
sg5
I126
sg6
I139
sg7
I106
ssS'antiquated'
p950
(dp951
g3
I2
sg4
I2
sg5
I2
sg6
I1
sg7
I2
ssS'dull'
p952
(dp953
g3
I20
sg4
I13
sg5
I8
sg6
I11
sg7
I11
ssS'refreshing'
p954
(dp955
g3
I13
sg4
I1
sg5
I0
sg6
I9
sg7
I0
ssS'arranged'
p956
(dp957
g3
I11
sg4
I5
sg5
I3
sg6
I7
sg7
I1
ssS'romantic'
p958
(dp959
g3
I0
sg4
I0
sg5
I0
sg6
I0
sg7
I1
ssS'dangerous'
p960
(dp961
g3
I18
sg4
I11
sg5
I19
sg6
I21
sg7
I10
ssS'dirty'
p962
(dp963
g3
I37
sg4
I30
sg5
I45
sg6
I58
sg7
I33
ssS'horrifying'
p964
(dp965
g3
I0
sg4
I1
sg5
I2
sg6
I0
sg7
I0
ssS'cordial'
p966
(dp967
g3
I0
sg4
I0
sg5
I0
sg6
I3
sg7
I0
ssS'curt'
p968
(dp969
g3
I4
sg4
I2
sg5
I2
sg6
I1
sg7
I5
ssS'ordered'
p970
(dp971
g3
I1225
sg4
I312
sg5
I1022
sg6
I499
sg7
I307
ssS'inadequate'
p972
(dp973
g3
I7
sg4
I19
sg5
I16
sg6
I10
sg7
I6
ssS'sticky'
p974
(dp975
g3
I82
sg4
I20
sg5
I36
sg6
I62
sg7
I41
ssS'tasty'
p976
(dp977
g3
I2
sg4
I0
sg5
I0
sg6
I1
sg7
I0
ssS'mediocre'
p978
(dp979
g3
I24
sg4
I56
sg5
I34
sg6
I37
sg7
I54
ssS'annoying'
p980
(dp981
g3
I373
sg4
I397
sg5
I320
sg6
I719
sg7
I474
ssS'incredible'
p982
(dp983
g3
I211
sg4
I14
sg5
I21
sg6
I79
sg7
I20
ssS'offensive'
p984
(dp985
g3
I0
sg4
I2
sg5
I4
sg6
I4
sg7
I1
ssS'tight'
p986
(dp987
g3
I411
sg4
I149
sg5
I172
sg6
I427
sg7
I188
ssS'stagnant'
p988
(dp989
g3
I1
sg4
I0
sg5
I0
sg6
I0
sg7
I0
ssS'woeful'
p990
(dp991
g3
I1
sg4
I2
sg5
I1
sg6
I2
sg7
I2
ssS'regrettable'
p992
(dp993
g3
I0
sg4
I1
sg5
I1
sg6
I0
sg7
I1
ssS'disgraceful'
p994
(dp995
g3
I0
sg4
I0
sg5
I2
sg6
I0
sg7
I0
ssS'nice'
p996
(dp997
g3
I3253
sg4
I789
sg5
I657
sg6
I2990
sg7
I1255
ssS'poor'
p998
(dp999
g3
I450
sg4
I789
sg5
I1240
sg6
I481
sg7
I461
ssS'muddled'
p1000
(dp1001
g3
I5
sg4
I1
sg5
I3
sg6
I2
sg7
I0
ssS'energetic'
p1002
(dp1003
g3
I2
sg4
I0
sg5
I0
sg6
I0
sg7
I0
ssS'tasteful'
p1004
(dp1005
g3
I5
sg4
I0
sg5
I1
sg6
I3
sg7
I0
ssS'welcome'
p1006
(dp1007
g3
I33
sg4
I4
sg5
I10
sg6
I29
sg7
I8
ssS'astounding'
p1008
(dp1009
g3
I12
sg4
I1
sg5
I0
sg6
I6
sg7
I0
ssS'polite'
p1010
(dp1011
g3
I11
sg4
I5
sg5
I18
sg6
I11
sg7
I10
ssS'luxurious'
p1012
(dp1013
g3
I4
sg4
I2
sg5
I0
sg6
I2
sg7
I3
ssS'drab'
p1014
(dp1015
g3
I2
sg4
I0
sg5
I0
sg6
I1
sg7
I1
ssS'included'
p1016
(dp1017
g3
I700
sg4
I139
sg5
I208
sg6
I568
sg7
I208
ssS'unresponsive'
p1018
(dp1019
g3
I3
sg4
I9
sg5
I15
sg6
I9
sg7
I8
ssS'amused'
p1020
(dp1021
g3
I3
sg4
I3
sg5
I2
sg6
I1
sg7
I1
ssS'fresh'
p1022
(dp1023
g3
I38
sg4
I11
sg5
I19
sg6
I20
sg7
I13
ssS'deluxe'
p1024
(dp1025
g3
I26
sg4
I4
sg5
I0
sg6
I15
sg7
I5
ss.